; Function Attrs: mustprogress nounwind uwtable
define internal fastcc noundef zeroext i1 @_ZN5clang19RecursiveASTVisitorIN12_GLOBAL__N_111TypeIndexerEE20WalkUpFromTagTypeLocENS_10TagTypeLocE(ptr noundef nonnull align 1 dereferenceable(1) %0, ptr nonnull %1, ptr %2) unnamed_addr #0 align 2 {
  %4 = alloca %"class.clang::TagTypeLoc", align 8
  %5 = alloca %"class.llvm::ArrayRef", align 8
  call void @llvm.lifetime.start.p0(i64 16, ptr nonnull %4)
  call void @llvm.lifetime.start.p0(i64 16, ptr nonnull %5)
  store ptr %1, ptr %4, align 8
  %6 = getelementptr inbounds nuw i8, ptr %4, i64 8
  store ptr %2, ptr %6, align 8
  %7 = tail call noundef ptr @_ZNK5clang7TagType7getDeclEv(ptr noundef nonnull align 16 dereferenceable(32) %1) #13
  %8 = load ptr, ptr %0, align 8
  %9 = tail call noundef zeroext i1 @_ZNK5clang5index15IndexingContext31shouldIndexFunctionLocalSymbolsEv(ptr noundef nonnull align 8 dereferenceable(64) %8) #13
  br i1 %9, label %12, label %10

10:                                               ; preds = %3
  %11 = tail call noundef ptr @_ZNK5clang4Decl25getParentFunctionOrMethodEb(ptr noundef nonnull align 8 dereferenceable(33) %7, i1 noundef zeroext false) #13
  %.not.i = icmp eq ptr %11, null
  br i1 %.not.i, label %12, label %_ZN12_GLOBAL__N_111TypeIndexer15VisitTagTypeLocEN5clang10TagTypeLocE.exit

12:                                               ; preds = %10, %3
  %13 = call noundef zeroext i1 @_ZNK5clang10TagTypeLoc12isDefinitionEv(ptr noundef nonnull align 8 dereferenceable(16) %4) #13
  %14 = load ptr, ptr %0, align 8
  br i1 %13, label %15, label %16

15:                                               ; preds = %12
  call void @_ZN5clang5index15IndexingContext12indexTagDeclEPKNS_7TagDeclEN4llvm8ArrayRefINS0_14SymbolRelationEEE(ptr noundef nonnull align 8 dereferenceable(64) %14, ptr noundef %7, ptr null, i64 0)
  br label %_ZN12_GLOBAL__N_111TypeIndexer15VisitTagTypeLocEN5clang10TagTypeLocE.exit

16:                                               ; preds = %12
  %17 = load ptr, ptr %6, align 8
  %.sroa.0.0.copyload.i = load i32, ptr %17, align 4
  %18 = getelementptr inbounds nuw i8, ptr %0, i64 8
  %19 = load ptr, ptr %18, align 8
  %20 = getelementptr inbounds nuw i8, ptr %0, i64 16
  %21 = load ptr, ptr %20, align 8
  %22 = getelementptr inbounds nuw i8, ptr %0, i64 32
  %23 = load ptr, ptr %22, align 8
  store ptr %23, ptr %5, align 8
  %24 = getelementptr inbounds nuw i8, ptr %5, i64 8
  %25 = call noundef i64 @_ZNK4llvm15SmallVectorBaseIjE4sizeEv(ptr noundef nonnull align 8 dereferenceable(16) %22) #13
  store i64 %25, ptr %24, align 8
  %26 = call noundef zeroext i1 @_ZN5clang5index15IndexingContext15handleReferenceEPKNS_9NamedDeclENS_14SourceLocationES4_PKNS_11DeclContextEjN4llvm8ArrayRefINS0_14SymbolRelationEEEPKNS_4ExprE(ptr noundef nonnull align 8 dereferenceable(64) %14, ptr noundef %7, i32 %.sroa.0.0.copyload.i, ptr noundef %19, ptr noundef %21, i32 noundef 0, ptr noundef nonnull byval(%"class.llvm::ArrayRef") align 8 %5, ptr noundef null) #13
  br label %_ZN12_GLOBAL__N_111TypeIndexer15VisitTagTypeLocEN5clang10TagTypeLocE.exit

_ZN12_GLOBAL__N_111TypeIndexer15VisitTagTypeLocEN5clang10TagTypeLocE.exit: ; preds = %10, %15, %16
  %.0.i = phi i1 [ true, %15 ], [ %26, %16 ], [ true, %10 ]
  call void @llvm.lifetime.end.p0(i64 16, ptr nonnull %4)
  call void @llvm.lifetime.end.p0(i64 16, ptr nonnull %5)
  ret i1 %.0.i
}